target datalayout = "e-m:e-p270:32:32-p271:32:32-p272:64:64-i64:64-i128:128-f80:128-n8:16:32:64-S128"
target triple = "x86_64-unknown-linux-gnu"

%class.btSliderConstraint = type { %class.btTypedConstraint, i8, i8, %class.btTransform, %class.btTransform, i8, float, float, float, float, float, float, float, float, float, float, float, float, float, float, float, float, float, float, float, float, float, float, float, float, float, float, float, float, i8, i8, i32, [3 x %class.btJacobianEntry], [3 x float], [3 x %class.btJacobianEntry], float, %class.btTransform, %class.btTransform, %class.btVector3, %class.btVector3, %class.btVector3, %class.btVector3, %class.btVector3, %class.btVector3, %class.btVector3, %class.btVector3, float, float, float, float, i8, float, float, float, i8, float, float, float }
%class.btTypedConstraint = type { ptr, %struct.btTypedObject, i32, %union.anon.0, float, i8, i8, i32, ptr, ptr, float, float, ptr }
%struct.btTypedObject = type { i32 }
%union.anon.0 = type { ptr }
%class.btJacobianEntry = type { %class.btVector3, %class.btVector3, %class.btVector3, %class.btVector3, %class.btVector3, float }
%class.btTransform = type { %class.btMatrix3x3, %class.btVector3 }
%class.btMatrix3x3 = type { [3 x %class.btVector3] }
%class.btVector3 = type { [4 x float] }

; Function Attrs: mustprogress nounwind uwtable
define linkonce_odr dso_local noundef ptr @_ZN9btVector3cvPfEv(ptr noundef nonnull align 4 dereferenceable(16) %this) #1 comdat align 2 {
entry:
  %this.addr = alloca ptr, align 8
  store ptr %this, ptr %this.addr, align 8
  %this1 = load ptr, ptr %this.addr, align 8
  %m_floats = getelementptr inbounds %class.btVector3, ptr %this1, i32 0, i32 0
  %arrayidx = getelementptr inbounds [4 x float], ptr %m_floats, i64 0, i64 0
  ret ptr %arrayidx
}

; Function Attrs: mustprogress uwtable
define dso_local void @_ZN18btSliderConstraint13testLinLimitsEv(ptr noundef nonnull align 8 dereferenceable(1152) %this) #2 align 2 {
entry:
  %this.addr = alloca ptr, align 8
  store ptr %this, ptr %this.addr, align 8
  %this1 = load ptr, ptr %this.addr, align 8
  %m_solveLinLim = getelementptr inbounds %class.btSliderConstraint, ptr %this1, i32 0, i32 34
  store i8 0, ptr %m_solveLinLim, align 8
  %m_depth = getelementptr inbounds %class.btSliderConstraint, ptr %this1, i32 0, i32 48
  %call = call noundef ptr @_ZN9btVector3cvPfEv(ptr noundef nonnull align 4 dereferenceable(16) %m_depth)
  %arrayidx = getelementptr inbounds float, ptr %call, i64 0
  %0 = load float, ptr %arrayidx, align 4
  %m_linPos = getelementptr inbounds %class.btSliderConstraint, ptr %this1, i32 0, i32 51
  store float %0, ptr %m_linPos, align 8
  %m_lowerLinLimit = getelementptr inbounds %class.btSliderConstraint, ptr %this1, i32 0, i32 6
  %1 = load float, ptr %m_lowerLinLimit, align 8
  %m_upperLinLimit = getelementptr inbounds %class.btSliderConstraint, ptr %this1, i32 0, i32 7
  %2 = load float, ptr %m_upperLinLimit, align 4
  %cmp = fcmp ole float %1, %2
  br i1 %cmp, label %if.then, label %if.else30

if.then:                                          ; preds = %entry
  %m_depth2 = getelementptr inbounds %class.btSliderConstraint, ptr %this1, i32 0, i32 48
  %call3 = call noundef ptr @_ZN9btVector3cvPfEv(ptr noundef nonnull align 4 dereferenceable(16) %m_depth2)
  %arrayidx4 = getelementptr inbounds float, ptr %call3, i64 0
  %3 = load float, ptr %arrayidx4, align 4
  %m_upperLinLimit5 = getelementptr inbounds %class.btSliderConstraint, ptr %this1, i32 0, i32 7
  %4 = load float, ptr %m_upperLinLimit5, align 4
  %cmp6 = fcmp ogt float %3, %4
  br i1 %cmp6, label %if.then7, label %if.else

if.then7:                                         ; preds = %if.then
  %m_upperLinLimit8 = getelementptr inbounds %class.btSliderConstraint, ptr %this1, i32 0, i32 7
  %5 = load float, ptr %m_upperLinLimit8, align 4
  %m_depth9 = getelementptr inbounds %class.btSliderConstraint, ptr %this1, i32 0, i32 48
  %call10 = call noundef ptr @_ZN9btVector3cvPfEv(ptr noundef nonnull align 4 dereferenceable(16) %m_depth9)
  %arrayidx11 = getelementptr inbounds float, ptr %call10, i64 0
  %6 = load float, ptr %arrayidx11, align 4
  %sub = fsub float %6, %5
  store float %sub, ptr %arrayidx11, align 4
  %m_solveLinLim12 = getelementptr inbounds %class.btSliderConstraint, ptr %this1, i32 0, i32 34
  store i8 1, ptr %m_solveLinLim12, align 8
  br label %if.end29

if.else:                                          ; preds = %if.then
  %m_depth13 = getelementptr inbounds %class.btSliderConstraint, ptr %this1, i32 0, i32 48
  %call14 = call noundef ptr @_ZN9btVector3cvPfEv(ptr noundef nonnull align 4 dereferenceable(16) %m_depth13)
  %arrayidx15 = getelementptr inbounds float, ptr %call14, i64 0
  %7 = load float, ptr %arrayidx15, align 4
  %m_lowerLinLimit16 = getelementptr inbounds %class.btSliderConstraint, ptr %this1, i32 0, i32 6
  %8 = load float, ptr %m_lowerLinLimit16, align 8
  %cmp17 = fcmp olt float %7, %8
  br i1 %cmp17, label %if.then18, label %if.else25

if.then18:                                        ; preds = %if.else
  %m_lowerLinLimit19 = getelementptr inbounds %class.btSliderConstraint, ptr %this1, i32 0, i32 6
  %9 = load float, ptr %m_lowerLinLimit19, align 8
  %m_depth20 = getelementptr inbounds %class.btSliderConstraint, ptr %this1, i32 0, i32 48
  %call21 = call noundef ptr @_ZN9btVector3cvPfEv(ptr noundef nonnull align 4 dereferenceable(16) %m_depth20)
  %arrayidx22 = getelementptr inbounds float, ptr %call21, i64 0
  %10 = load float, ptr %arrayidx22, align 4
  %sub23 = fsub float %10, %9
  store float %sub23, ptr %arrayidx22, align 4
  %m_solveLinLim24 = getelementptr inbounds %class.btSliderConstraint, ptr %this1, i32 0, i32 34
  store i8 1, ptr %m_solveLinLim24, align 8
  br label %if.end

if.else25:                                        ; preds = %if.else
  %m_depth26 = getelementptr inbounds %class.btSliderConstraint, ptr %this1, i32 0, i32 48
  %call27 = call noundef ptr @_ZN9btVector3cvPfEv(ptr noundef nonnull align 4 dereferenceable(16) %m_depth26)
  %arrayidx28 = getelementptr inbounds float, ptr %call27, i64 0
  store float 0.000000e+00, ptr %arrayidx28, align 4
  br label %if.end

if.end:                                           ; preds = %if.else25, %if.then18
  br label %if.end29

if.end29:                                         ; preds = %if.end, %if.then7
  br label %if.end34

if.else30:                                        ; preds = %entry
  %m_depth31 = getelementptr inbounds %class.btSliderConstraint, ptr %this1, i32 0, i32 48
  %call32 = call noundef ptr @_ZN9btVector3cvPfEv(ptr noundef nonnull align 4 dereferenceable(16) %m_depth31)
  %arrayidx33 = getelementptr inbounds float, ptr %call32, i64 0
  store float 0.000000e+00, ptr %arrayidx33, align 4
  br label %if.end34

if.end34:                                         ; preds = %if.else30, %if.end29
  ret void
}