; Function Attrs: mustprogress nofree norecurse nosync nounwind willreturn memory(argmem: readwrite) uwtable
define dso_local void @_ZN18btSliderConstraint13testLinLimitsEv(ptr nocapture noundef nonnull align 8 dereferenceable(1152) %this) local_unnamed_addr #6 align 2 {
entry:
  %m_solveLinLim = getelementptr inbounds i8, ptr %this, i64 320
  store i8 0, ptr %m_solveLinLim, align 8
  %m_depth = getelementptr inbounds i8, ptr %this, i64 1056
  %0 = load float, ptr %m_depth, align 8
  %m_linPos = getelementptr inbounds i8, ptr %this, i64 1104
  store float %0, ptr %m_linPos, align 8
  %m_lowerLinLimit = getelementptr inbounds i8, ptr %this, i64 208
  %1 = load float, ptr %m_lowerLinLimit, align 8
  %m_upperLinLimit = getelementptr inbounds i8, ptr %this, i64 212
  %2 = load float, ptr %m_upperLinLimit, align 4
  %cmp = fcmp ugt float %1, %2
  br i1 %cmp, label %if.else30, label %if.then

if.then:                                          ; preds = %entry
  %cmp6 = fcmp ogt float %0, %2
  br i1 %cmp6, label %if.then7, label %if.else

if.then7:                                         ; preds = %if.then
  %sub = fsub float %0, %2
  store float %sub, ptr %m_depth, align 8
  store i8 1, ptr %m_solveLinLim, align 8
  br label %if.end34

if.else:                                          ; preds = %if.then
  %cmp17 = fcmp olt float %0, %1
  br i1 %cmp17, label %if.then18, label %if.else25

if.then18:                                        ; preds = %if.else
  %sub23 = fsub float %0, %1
  store float %sub23, ptr %m_depth, align 8
  store i8 1, ptr %m_solveLinLim, align 8
  br label %if.end34

if.else25:                                        ; preds = %if.else
  store float 0.000000e+00, ptr %m_depth, align 8
  br label %if.end34

if.else30:                                        ; preds = %entry
  store float 0.000000e+00, ptr %m_depth, align 8
  br label %if.end34

if.end34:                                         ; preds = %if.then7, %if.else25, %if.then18, %if.else30
  ret void
}